target datalayout = "e-m:e-p270:32:32-p271:32:32-p272:64:64-i64:64-i128:128-f80:128-n8:16:32:64-S128"
target triple = "x86_64-pc-linux-gnu"

%"struct.ZXing::OneD::DataBar::Pair" = type { %"struct.ZXing::OneD::DataBar::Character", %"struct.ZXing::OneD::DataBar::Character", i32, i32, i32, i32, i32 }
%"struct.ZXing::OneD::DataBar::Character" = type { i32, i32 }

; Function Attrs: mustprogress nounwind uwtable
define internal noundef zeroext i1 @_ZN5ZXing4OneD7DataBarL9IsStackedERKNS1_4PairES4_(ptr noundef nonnull align 4 dereferenceable(36) %0, ptr noundef nonnull align 4 dereferenceable(36) %1) #2 {
  %3 = alloca ptr, align 8
  %4 = alloca ptr, align 8
  store ptr %0, ptr %3, align 8, !tbaa !46
  store ptr %1, ptr %4, align 8, !tbaa !46
  %5 = load ptr, ptr %3, align 8, !tbaa !46
  %6 = getelementptr inbounds nuw %"struct.ZXing::OneD::DataBar::Pair", ptr %5, i32 0, i32 5
  %7 = load i32, ptr %6, align 4, !tbaa !48
  %8 = load ptr, ptr %4, align 8, !tbaa !46
  %9 = getelementptr inbounds nuw %"struct.ZXing::OneD::DataBar::Pair", ptr %8, i32 0, i32 5
  %10 = load i32, ptr %9, align 4, !tbaa !48
  %11 = sub nsw i32 %7, %10
  %12 = call i32 @llvm.abs.i32(i32 %11, i1 true)
  %13 = load ptr, ptr %3, align 8, !tbaa !46
  %14 = getelementptr inbounds nuw %"struct.ZXing::OneD::DataBar::Pair", ptr %13, i32 0, i32 4
  %15 = load i32, ptr %14, align 4, !tbaa !52
  %16 = load ptr, ptr %3, align 8, !tbaa !46
  %17 = getelementptr inbounds nuw %"struct.ZXing::OneD::DataBar::Pair", ptr %16, i32 0, i32 3
  %18 = load i32, ptr %17, align 4, !tbaa !51
  %19 = sub nsw i32 %15, %18
  %20 = icmp sgt i32 %12, %19
  br i1 %20, label %34, label %21

21:                                               ; preds = %2
  %22 = load ptr, ptr %4, align 8, !tbaa !46
  %23 = getelementptr inbounds nuw %"struct.ZXing::OneD::DataBar::Pair", ptr %22, i32 0, i32 3
  %24 = load i32, ptr %23, align 4, !tbaa !51
  %25 = load ptr, ptr %3, align 8, !tbaa !46
  %26 = getelementptr inbounds nuw %"struct.ZXing::OneD::DataBar::Pair", ptr %25, i32 0, i32 3
  %27 = load i32, ptr %26, align 4, !tbaa !51
  %28 = load ptr, ptr %3, align 8, !tbaa !46
  %29 = getelementptr inbounds nuw %"struct.ZXing::OneD::DataBar::Pair", ptr %28, i32 0, i32 4
  %30 = load i32, ptr %29, align 4, !tbaa !52
  %31 = add nsw i32 %27, %30
  %32 = sdiv i32 %31, 2
  %33 = icmp slt i32 %24, %32
  br label %34

34:                                               ; preds = %21, %2
  %35 = phi i1 [ true, %2 ], [ %33, %21 ]
  ret i1 %35
}

; Function Attrs: inlinehint mustprogress nounwind uwtable
define linkonce_odr noundef nonnull align 4 dereferenceable(4) ptr @_ZSt3minIiERKT_S2_S2_(ptr noundef nonnull align 4 dereferenceable(4) %0, ptr noundef nonnull align 4 dereferenceable(4) %1) #3 comdat {
  %3 = alloca ptr, align 8
  %4 = alloca ptr, align 8
  %5 = alloca ptr, align 8
  store ptr %0, ptr %4, align 8, !tbaa !45
  store ptr %1, ptr %5, align 8, !tbaa !45
  %6 = load ptr, ptr %5, align 8, !tbaa !45
  %7 = load i32, ptr %6, align 4, !tbaa !3
  %8 = load ptr, ptr %4, align 8, !tbaa !45
  %9 = load i32, ptr %8, align 4, !tbaa !3
  %10 = icmp slt i32 %7, %9
  br i1 %10, label %11, label %13

11:                                               ; preds = %2
  %12 = load ptr, ptr %5, align 8, !tbaa !45
  store ptr %12, ptr %3, align 8
  br label %15

13:                                               ; preds = %2
  %14 = load ptr, ptr %4, align 8, !tbaa !45
  store ptr %14, ptr %3, align 8
  br label %15

15:                                               ; preds = %13, %11
  %16 = load ptr, ptr %3, align 8
  ret ptr %16
}

; Function Attrs: mustprogress uwtable
define noundef i32 @_ZN5ZXing4OneD7DataBar17EstimateLineCountERKNS1_4PairES4_(ptr noundef nonnull align 4 dereferenceable(36) %0, ptr noundef nonnull align 4 dereferenceable(36) %1) #0 {
  %3 = alloca ptr, align 8
  %4 = alloca ptr, align 8
  store ptr %0, ptr %3, align 8, !tbaa !46
  store ptr %1, ptr %4, align 8, !tbaa !46
  %5 = load ptr, ptr %3, align 8, !tbaa !46
  %6 = getelementptr inbounds nuw %"struct.ZXing::OneD::DataBar::Pair", ptr %5, i32 0, i32 6
  %7 = load ptr, ptr %4, align 8, !tbaa !46
  %8 = getelementptr inbounds nuw %"struct.ZXing::OneD::DataBar::Pair", ptr %7, i32 0, i32 6
  %9 = call noundef nonnull align 4 dereferenceable(4) ptr @_ZSt3minIiERKT_S2_S2_(ptr noundef nonnull align 4 dereferenceable(4) %6, ptr noundef nonnull align 4 dereferenceable(4) %8)
  %10 = load i32, ptr %9, align 4, !tbaa !3
  %11 = sub nsw i32 %10, 1
  %12 = load ptr, ptr %3, align 8, !tbaa !46
  %13 = load ptr, ptr %4, align 8, !tbaa !46
  %14 = call noundef zeroext i1 @_ZN5ZXing4OneD7DataBarL9IsStackedERKNS1_4PairES4_(ptr noundef nonnull align 4 dereferenceable(36) %12, ptr noundef nonnull align 4 dereferenceable(36) %13)
  %15 = zext i1 %14 to i32
  %16 = add nsw i32 %11, %15
  ret i32 %16
}