; Function Attrs: mustprogress nofree norecurse nosync nounwind willreturn memory(argmem: read) uwtable
define noundef i32 @_ZN5ZXing4OneD7DataBar17EstimateLineCountERKNS1_4PairES4_(ptr noundef nonnull readonly align 4 captures(none) dereferenceable(36) %0, ptr noundef nonnull readonly align 4 captures(none) dereferenceable(36) %1) local_unnamed_addr #0 {
  %3 = getelementptr inbounds nuw i8, ptr %0, i64 32
  %4 = getelementptr inbounds nuw i8, ptr %1, i64 32
  %5 = load i32, ptr %4, align 4, !tbaa !3
  %6 = load i32, ptr %3, align 4, !tbaa !3
  %7 = getelementptr inbounds nuw i8, ptr %1, i64 28
  %.val4 = load i32, ptr %7, align 4, !tbaa !36
  %8 = getelementptr inbounds nuw i8, ptr %0, i64 28
  %9 = load i32, ptr %8, align 4, !tbaa !36
  %10 = sub nsw i32 %9, %.val4
  %11 = tail call i32 @llvm.abs.i32(i32 %10, i1 true)
  %12 = getelementptr inbounds nuw i8, ptr %0, i64 24
  %13 = load i32, ptr %12, align 4, !tbaa !39
  %14 = getelementptr inbounds nuw i8, ptr %0, i64 20
  %15 = load i32, ptr %14, align 4, !tbaa !40
  %16 = sub nsw i32 %13, %15
  %17 = icmp sgt i32 %11, %16
  br i1 %17, label %_ZN5ZXing4OneD7DataBarL9IsStackedERKNS1_4PairES4_.exit, label %18

18:                                               ; preds = %2
  %19 = getelementptr inbounds nuw i8, ptr %1, i64 20
  %.val = load i32, ptr %19, align 4
  %20 = add nsw i32 %15, %13
  %21 = sdiv i32 %20, 2
  %22 = icmp slt i32 %.val, %21
  %23 = zext i1 %22 to i32
  br label %_ZN5ZXing4OneD7DataBarL9IsStackedERKNS1_4PairES4_.exit

_ZN5ZXing4OneD7DataBarL9IsStackedERKNS1_4PairES4_.exit: ; preds = %2, %18
  %24 = phi i32 [ 1, %2 ], [ %23, %18 ]
  %25 = tail call i32 @llvm.smin.i32(i32 %5, i32 %6)
  %26 = add nsw i32 %25, -1
  %27 = add nsw i32 %26, %24
  ret i32 %27
}